; Function Attrs: nofree norecurse nounwind memory(argmem: readwrite, inaccessiblemem: readwrite) uwtable
define void @sp_forcezero(ptr noundef %0) local_unnamed_addr #4 {
  %.not = icmp eq ptr %0, null
  br i1 %.not, label %21, label %2

2:                                                ; preds = %1
  %3 = getelementptr inbounds nuw i8, ptr %0, i64 8
  %4 = getelementptr inbounds nuw i8, ptr %0, i64 2
  %5 = load i16, ptr %4, align 2, !tbaa !10
  %6 = zext i16 %5 to i32
  %7 = shl nuw nsw i32 %6, 3
  %8 = ptrtoint ptr %3 to i64
  %9 = trunc i64 %8 to i32
  %10 = sub i32 0, %9
  %11 = and i32 %10, 7
  %spec.select.i = tail call i32 @llvm.umin.i32(i32 range(i32 0, 524281) %7, i32 %11)
  %12 = sub nsw i32 %7, %spec.select.i
  %.not24.i = icmp eq i32 %spec.select.i, 0
  br i1 %.not24.i, label %.preheader23.i, label %.lr.ph.i

.preheader23.i:                                   ; preds = %.lr.ph.i, %2
  %.016.lcssa.i = phi ptr [ %3, %2 ], [ %15, %.lr.ph.i ]
  %13 = icmp ugt i32 %12, 7
  br i1 %13, label %.lr.ph29.i, label %.preheader.i

.lr.ph.i:                                         ; preds = %2, %.lr.ph.i
  %.126.i = phi i32 [ %14, %.lr.ph.i ], [ %spec.select.i, %2 ]
  %.01625.i = phi ptr [ %15, %.lr.ph.i ], [ %3, %2 ]
  %14 = add nsw i32 %.126.i, -1
  %15 = getelementptr inbounds nuw i8, ptr %.01625.i, i64 1
  store volatile i8 0, ptr %.01625.i, align 1, !tbaa !13
  %.not.i = icmp eq i32 %14, 0
  br i1 %.not.i, label %.preheader23.i, label %.lr.ph.i, !llvm.loop !14

.preheader.i:                                     ; preds = %.lr.ph29.i, %.preheader23.i
  %.018.lcssa.i = phi i32 [ %12, %.preheader23.i ], [ %17, %.lr.ph29.i ]
  %.015.lcssa.i = phi ptr [ %.016.lcssa.i, %.preheader23.i ], [ %16, %.lr.ph29.i ]
  %.not2232.i = icmp eq i32 %.018.lcssa.i, 0
  br i1 %.not2232.i, label %ForceZero.exit, label %.lr.ph35.i

.lr.ph29.i:                                       ; preds = %.preheader23.i, %.lr.ph29.i
  %.01528.i = phi ptr [ %16, %.lr.ph29.i ], [ %.016.lcssa.i, %.preheader23.i ]
  %.01827.i = phi i32 [ %17, %.lr.ph29.i ], [ %12, %.preheader23.i ]
  %16 = getelementptr inbounds nuw i8, ptr %.01528.i, i64 8
  store volatile i64 0, ptr %.01528.i, align 8, !tbaa !8
  %17 = add i32 %.01827.i, -8
  %18 = icmp ugt i32 %17, 7
  br i1 %18, label %.lr.ph29.i, label %.preheader.i, !llvm.loop !16

.lr.ph35.i:                                       ; preds = %.preheader.i, %.lr.ph35.i
  %.11734.i = phi ptr [ %20, %.lr.ph35.i ], [ %.015.lcssa.i, %.preheader.i ]
  %.11933.i = phi i32 [ %19, %.lr.ph35.i ], [ %.018.lcssa.i, %.preheader.i ]
  %19 = add i32 %.11933.i, -1
  %20 = getelementptr inbounds nuw i8, ptr %.11734.i, i64 1
  store volatile i8 0, ptr %.11734.i, align 1, !tbaa !13
  %.not22.i = icmp eq i32 %19, 0
  br i1 %.not22.i, label %ForceZero.exit, label %.lr.ph35.i, !llvm.loop !17

ForceZero.exit:                                   ; preds = %.lr.ph35.i, %.preheader.i
  store i16 0, ptr %0, align 8, !tbaa !3
  store i64 0, ptr %3, align 8, !tbaa !8
  br label %21

21:                                               ; preds = %ForceZero.exit, %1
  ret void
}